target datalayout = "e-m:e-p270:32:32-p271:32:32-p272:64:64-i64:64-i128:128-f80:128-n8:16:32:64-S128"
target triple = "x86_64-unknown-linux-gnu"

%"class.boost::detail::shared_count" = type { ptr }
%"class.std::vector.29" = type { %"struct.std::_Vector_base.30" }
%"struct.std::_Vector_base.30" = type { %"struct.std::_Vector_base<boost::shared_ptr<QuantLib::Dividend>, std::allocator<boost::shared_ptr<QuantLib::Dividend>>>::_Vector_impl" }
%"struct.std::_Vector_base<boost::shared_ptr<QuantLib::Dividend>, std::allocator<boost::shared_ptr<QuantLib::Dividend>>>::_Vector_impl" = type { %"struct.std::_Vector_base<boost::shared_ptr<QuantLib::Dividend>, std::allocator<boost::shared_ptr<QuantLib::Dividend>>>::_Vector_impl_data" }
%"struct.std::_Vector_base<boost::shared_ptr<QuantLib::Dividend>, std::allocator<boost::shared_ptr<QuantLib::Dividend>>>::_Vector_impl_data" = type { ptr, ptr, ptr }
%"struct.QuantLib::FdmSchemeDesc" = type { i32, double, double }
%"class.boost::shared_ptr.27" = type { ptr, %"class.boost::detail::shared_count" }
%"class.boost::shared_ptr.34" = type { ptr, %"class.boost::detail::shared_count" }
%"class.boost::shared_ptr.40" = type { ptr, %"class.boost::detail::shared_count" }
%"class.QuantLib::MakeFdHestonVanillaEngine" = type { %"class.boost::shared_ptr.40", %"class.std::vector.29", i64, i64, i64, i64, %"class.boost::shared_ptr.92", %"class.boost::shared_ptr.27", %"class.boost::shared_ptr.34" }
%"class.boost::shared_ptr.92" = type { ptr, %"class.boost::detail::shared_count" }

; Function Attrs: mustprogress nounwind uwtable
define linkonce_odr void @_ZNSt15__new_allocatorIN5boost10shared_ptrIN8QuantLib8DividendEEEEC2Ev(ptr noundef nonnull align 1 dereferenceable(1) %this) unnamed_addr #1 comdat align 2 {
entry:
  %this.addr = alloca ptr, align 8
  store ptr %this, ptr %this.addr, align 8, !tbaa !3
  ret void
}

; Function Attrs: mustprogress nounwind uwtable
define linkonce_odr void @_ZNSt12_Vector_baseIN5boost10shared_ptrIN8QuantLib8DividendEEESaIS4_EE17_Vector_impl_dataC2Ev(ptr noundef nonnull align 8 dereferenceable(24) %this) unnamed_addr #1 comdat align 2 {
entry:
  %this.addr = alloca ptr, align 8
  store ptr %this, ptr %this.addr, align 8, !tbaa !3
  %this1 = load ptr, ptr %this.addr, align 8
  %_M_start = getelementptr inbounds nuw %"struct.std::_Vector_base<boost::shared_ptr<QuantLib::Dividend>, std::allocator<boost::shared_ptr<QuantLib::Dividend>>>::_Vector_impl_data", ptr %this1, i32 0, i32 0
  store ptr null, ptr %_M_start, align 8, !tbaa !165
  %_M_finish = getelementptr inbounds nuw %"struct.std::_Vector_base<boost::shared_ptr<QuantLib::Dividend>, std::allocator<boost::shared_ptr<QuantLib::Dividend>>>::_Vector_impl_data", ptr %this1, i32 0, i32 1
  store ptr null, ptr %_M_finish, align 8, !tbaa !166
  %_M_end_of_storage = getelementptr inbounds nuw %"struct.std::_Vector_base<boost::shared_ptr<QuantLib::Dividend>, std::allocator<boost::shared_ptr<QuantLib::Dividend>>>::_Vector_impl_data", ptr %this1, i32 0, i32 2
  store ptr null, ptr %_M_end_of_storage, align 8, !tbaa !199
  ret void
}

; Function Attrs: mustprogress nounwind uwtable
define linkonce_odr void @_ZNSaIN5boost10shared_ptrIN8QuantLib8DividendEEEEC2Ev(ptr noundef nonnull align 1 dereferenceable(1) %this) unnamed_addr #1 comdat align 2 {
entry:
  %this.addr = alloca ptr, align 8
  store ptr %this, ptr %this.addr, align 8, !tbaa !3
  %this1 = load ptr, ptr %this.addr, align 8
  call void @_ZNSt15__new_allocatorIN5boost10shared_ptrIN8QuantLib8DividendEEEEC2Ev(ptr noundef nonnull align 1 dereferenceable(1) %this1) #11
  ret void
}

; Function Attrs: mustprogress nounwind uwtable
define linkonce_odr void @_ZNSt12_Vector_baseIN5boost10shared_ptrIN8QuantLib8DividendEEESaIS4_EE12_Vector_implC2Ev(ptr noundef nonnull align 8 dereferenceable(24) %this) unnamed_addr #1 comdat align 2 {
entry:
  %this.addr = alloca ptr, align 8
  store ptr %this, ptr %this.addr, align 8, !tbaa !3
  %this1 = load ptr, ptr %this.addr, align 8
  call void @_ZNSaIN5boost10shared_ptrIN8QuantLib8DividendEEEEC2Ev(ptr noundef nonnull align 1 dereferenceable(1) %this1) #11
  call void @_ZNSt12_Vector_baseIN5boost10shared_ptrIN8QuantLib8DividendEEESaIS4_EE17_Vector_impl_dataC2Ev(ptr noundef nonnull align 8 dereferenceable(24) %this1) #11
  ret void
}

; Function Attrs: mustprogress nounwind uwtable
define linkonce_odr void @_ZN5boost6detail12shared_countC2Ev(ptr noundef nonnull align 8 dereferenceable(8) %this) unnamed_addr #1 comdat align 2 {
entry:
  %this.addr = alloca ptr, align 8
  store ptr %this, ptr %this.addr, align 8, !tbaa !3
  %this1 = load ptr, ptr %this.addr, align 8
  %pi_ = getelementptr inbounds nuw %"class.boost::detail::shared_count", ptr %this1, i32 0, i32 0
  store ptr null, ptr %pi_, align 8, !tbaa !196
  ret void
}

; Function Attrs: mustprogress nounwind uwtable
define linkonce_odr void @_ZNSt12_Vector_baseIN5boost10shared_ptrIN8QuantLib8DividendEEESaIS4_EEC2Ev(ptr noundef nonnull align 8 dereferenceable(24) %this) unnamed_addr #1 comdat align 2 {
entry:
  %this.addr = alloca ptr, align 8
  store ptr %this, ptr %this.addr, align 8, !tbaa !3
  %this1 = load ptr, ptr %this.addr, align 8
  %_M_impl = getelementptr inbounds nuw %"struct.std::_Vector_base.30", ptr %this1, i32 0, i32 0
  call void @_ZNSt12_Vector_baseIN5boost10shared_ptrIN8QuantLib8DividendEEESaIS4_EE12_Vector_implC2Ev(ptr noundef nonnull align 8 dereferenceable(24) %_M_impl) #11
  ret void
}

; Function Attrs: mustprogress nounwind uwtable
define linkonce_odr void @_ZN5boost6detail12shared_countC2EOS1_(ptr noundef nonnull align 8 dereferenceable(8) %this, ptr noundef nonnull align 8 dereferenceable(8) %r) unnamed_addr #1 comdat align 2 {
entry:
  %this.addr = alloca ptr, align 8
  %r.addr = alloca ptr, align 8
  store ptr %this, ptr %this.addr, align 8, !tbaa !3
  store ptr %r, ptr %r.addr, align 8, !tbaa !3
  %this1 = load ptr, ptr %this.addr, align 8
  %pi_ = getelementptr inbounds nuw %"class.boost::detail::shared_count", ptr %this1, i32 0, i32 0
  %0 = load ptr, ptr %r.addr, align 8, !tbaa !3
  %pi_2 = getelementptr inbounds nuw %"class.boost::detail::shared_count", ptr %0, i32 0, i32 0
  %1 = load ptr, ptr %pi_2, align 8, !tbaa !196
  store ptr %1, ptr %pi_, align 8, !tbaa !196
  %2 = load ptr, ptr %r.addr, align 8, !tbaa !3
  %pi_3 = getelementptr inbounds nuw %"class.boost::detail::shared_count", ptr %2, i32 0, i32 0
  store ptr null, ptr %pi_3, align 8, !tbaa !196
  ret void
}

; Function Attrs: mustprogress nounwind uwtable
define linkonce_odr void @_ZN5boost10shared_ptrIN8QuantLib15FdmQuantoHelperEEC2Ev(ptr noundef nonnull align 8 dereferenceable(16) %this) unnamed_addr #1 comdat align 2 {
entry:
  %this.addr = alloca ptr, align 8
  store ptr %this, ptr %this.addr, align 8, !tbaa !3
  %this1 = load ptr, ptr %this.addr, align 8
  %px = getelementptr inbounds nuw %"class.boost::shared_ptr.34", ptr %this1, i32 0, i32 0
  store ptr null, ptr %px, align 8, !tbaa !76
  %pn = getelementptr inbounds nuw %"class.boost::shared_ptr.34", ptr %this1, i32 0, i32 1
  call void @_ZN5boost6detail12shared_countC2Ev(ptr noundef nonnull align 8 dereferenceable(8) %pn) #11
  ret void
}

; Function Attrs: mustprogress nounwind uwtable
define linkonce_odr void @_ZN5boost10shared_ptrIN8QuantLib21LocalVolTermStructureEEC2Ev(ptr noundef nonnull align 8 dereferenceable(16) %this) unnamed_addr #1 comdat align 2 {
entry:
  %this.addr = alloca ptr, align 8
  store ptr %this, ptr %this.addr, align 8, !tbaa !3
  %this1 = load ptr, ptr %this.addr, align 8
  %px = getelementptr inbounds nuw %"class.boost::shared_ptr.27", ptr %this1, i32 0, i32 0
  store ptr null, ptr %px, align 8, !tbaa !75
  %pn = getelementptr inbounds nuw %"class.boost::shared_ptr.27", ptr %this1, i32 0, i32 1
  call void @_ZN5boost6detail12shared_countC2Ev(ptr noundef nonnull align 8 dereferenceable(8) %pn) #11
  ret void
}

; Function Attrs: mustprogress nounwind uwtable
define linkonce_odr void @_ZNSt6vectorIN5boost10shared_ptrIN8QuantLib8DividendEEESaIS4_EEC2Ev(ptr noundef nonnull align 8 dereferenceable(24) %this) unnamed_addr #1 comdat align 2 {
entry:
  %this.addr = alloca ptr, align 8
  store ptr %this, ptr %this.addr, align 8, !tbaa !3
  %this1 = load ptr, ptr %this.addr, align 8
  call void @_ZNSt12_Vector_baseIN5boost10shared_ptrIN8QuantLib8DividendEEESaIS4_EEC2Ev(ptr noundef nonnull align 8 dereferenceable(24) %this1) #11
  ret void
}

; Function Attrs: mustprogress nounwind uwtable
define linkonce_odr void @_ZN5boost10shared_ptrIN8QuantLib11HestonModelEEC2EOS3_(ptr noundef nonnull align 8 dereferenceable(16) %this, ptr noundef nonnull align 8 dereferenceable(16) %r) unnamed_addr #1 comdat align 2 {
entry:
  %this.addr = alloca ptr, align 8
  %r.addr = alloca ptr, align 8
  store ptr %this, ptr %this.addr, align 8, !tbaa !3
  store ptr %r, ptr %r.addr, align 8, !tbaa !3
  %this1 = load ptr, ptr %this.addr, align 8
  %px = getelementptr inbounds nuw %"class.boost::shared_ptr.40", ptr %this1, i32 0, i32 0
  %0 = load ptr, ptr %r.addr, align 8, !tbaa !3
  %px2 = getelementptr inbounds nuw %"class.boost::shared_ptr.40", ptr %0, i32 0, i32 0
  %1 = load ptr, ptr %px2, align 8, !tbaa !88
  store ptr %1, ptr %px, align 8, !tbaa !88
  %pn = getelementptr inbounds nuw %"class.boost::shared_ptr.40", ptr %this1, i32 0, i32 1
  %2 = load ptr, ptr %r.addr, align 8, !tbaa !3
  %pn3 = getelementptr inbounds nuw %"class.boost::shared_ptr.40", ptr %2, i32 0, i32 1
  call void @_ZN5boost6detail12shared_countC2EOS1_(ptr noundef nonnull align 8 dereferenceable(8) %pn, ptr noundef nonnull align 8 dereferenceable(8) %pn3) #11
  %3 = load ptr, ptr %r.addr, align 8, !tbaa !3
  %px4 = getelementptr inbounds nuw %"class.boost::shared_ptr.40", ptr %3, i32 0, i32 0
  store ptr null, ptr %px4, align 8, !tbaa !88
  ret void
}

; Function Attrs: mustprogress uwtable
define void @_ZN8QuantLib25MakeFdHestonVanillaEngineC2EN5boost10shared_ptrINS_11HestonModelEEE(ptr noundef nonnull align 8 dereferenceable(120) %this, ptr noundef %hestonModel) unnamed_addr #2 align 2 personality ptr @__gxx_personality_v0 {
entry:
  %this.addr = alloca ptr, align 8
  %hestonModel.indirect_addr = alloca ptr, align 8
  %ref.tmp = alloca %"struct.QuantLib::FdmSchemeDesc", align 8
  %exn.slot = alloca ptr, align 8
  %ehselector.slot = alloca i32, align 4
  store ptr %this, ptr %this.addr, align 8, !tbaa !3
  store ptr %hestonModel, ptr %hestonModel.indirect_addr, align 8, !tbaa !3
  %this1 = load ptr, ptr %this.addr, align 8
  %hestonModel_ = getelementptr inbounds nuw %"class.QuantLib::MakeFdHestonVanillaEngine", ptr %this1, i32 0, i32 0
  call void @_ZN5boost10shared_ptrIN8QuantLib11HestonModelEEC2EOS3_(ptr noundef nonnull align 8 dereferenceable(16) %hestonModel_, ptr noundef nonnull align 8 dereferenceable(16) %hestonModel) #11
  %dividends_ = getelementptr inbounds nuw %"class.QuantLib::MakeFdHestonVanillaEngine", ptr %this1, i32 0, i32 1
  call void @_ZNSt6vectorIN5boost10shared_ptrIN8QuantLib8DividendEEESaIS4_EEC2Ev(ptr noundef nonnull align 8 dereferenceable(24) %dividends_) #11
  %tGrid_ = getelementptr inbounds nuw %"class.QuantLib::MakeFdHestonVanillaEngine", ptr %this1, i32 0, i32 2
  store i64 100, ptr %tGrid_, align 8, !tbaa !159
  %xGrid_ = getelementptr inbounds nuw %"class.QuantLib::MakeFdHestonVanillaEngine", ptr %this1, i32 0, i32 3
  store i64 100, ptr %xGrid_, align 8, !tbaa !162
  %vGrid_ = getelementptr inbounds nuw %"class.QuantLib::MakeFdHestonVanillaEngine", ptr %this1, i32 0, i32 4
  store i64 50, ptr %vGrid_, align 8, !tbaa !163
  %dampingSteps_ = getelementptr inbounds nuw %"class.QuantLib::MakeFdHestonVanillaEngine", ptr %this1, i32 0, i32 5
  store i64 0, ptr %dampingSteps_, align 8, !tbaa !164
  %schemeDesc_ = getelementptr inbounds nuw %"class.QuantLib::MakeFdHestonVanillaEngine", ptr %this1, i32 0, i32 6
  call void @llvm.lifetime.start.p0(i64 24, ptr %ref.tmp) #11
  invoke void @_ZN8QuantLib13FdmSchemeDesc11HundsdorferEv(ptr dead_on_unwind writable sret(%"struct.QuantLib::FdmSchemeDesc") align 8 %ref.tmp)
          to label %invoke.cont unwind label %lpad

invoke.cont:                                      ; preds = %entry
  invoke void @_ZN5boost11make_sharedIN8QuantLib13FdmSchemeDescEJS2_EEENS_6detail15sp_if_not_arrayIT_E4typeEDpOT0_(ptr dead_on_unwind writable sret(%"class.boost::shared_ptr.92") align 8 %schemeDesc_, ptr noundef nonnull align 8 dereferenceable(24) %ref.tmp)
          to label %invoke.cont2 unwind label %lpad

invoke.cont2:                                     ; preds = %invoke.cont
  call void @llvm.lifetime.end.p0(i64 24, ptr %ref.tmp) #11
  %leverageFct_ = getelementptr inbounds nuw %"class.QuantLib::MakeFdHestonVanillaEngine", ptr %this1, i32 0, i32 7
  call void @_ZN5boost10shared_ptrIN8QuantLib21LocalVolTermStructureEEC2Ev(ptr noundef nonnull align 8 dereferenceable(16) %leverageFct_) #11
  %quantoHelper_ = getelementptr inbounds nuw %"class.QuantLib::MakeFdHestonVanillaEngine", ptr %this1, i32 0, i32 8
  call void @_ZN5boost10shared_ptrIN8QuantLib15FdmQuantoHelperEEC2Ev(ptr noundef nonnull align 8 dereferenceable(16) %quantoHelper_) #11
  ret void

lpad:                                             ; preds = %invoke.cont, %entry
  %0 = landingpad { ptr, i32 }
          cleanup
  %1 = extractvalue { ptr, i32 } %0, 0
  store ptr %1, ptr %exn.slot, align 8
  %2 = extractvalue { ptr, i32 } %0, 1
  store i32 %2, ptr %ehselector.slot, align 4
  call void @llvm.lifetime.end.p0(i64 24, ptr %ref.tmp) #11
  call void @_ZNSt6vectorIN5boost10shared_ptrIN8QuantLib8DividendEEESaIS4_EED2Ev(ptr noundef nonnull align 8 dereferenceable(24) %dividends_) #11
  call void @_ZN5boost10shared_ptrIN8QuantLib11HestonModelEED2Ev(ptr noundef nonnull align 8 dereferenceable(16) %hestonModel_) #11
  br label %eh.resume

eh.resume:                                        ; preds = %lpad
  %exn = load ptr, ptr %exn.slot, align 8
  %sel = load i32, ptr %ehselector.slot, align 4
  %lpad.val = insertvalue { ptr, i32 } poison, ptr %exn, 0
  %lpad.val3 = insertvalue { ptr, i32 } %lpad.val, i32 %sel, 1
  resume { ptr, i32 } %lpad.val3
}