; Function Attrs: mustprogress uwtable
define void @_ZN8QuantLib25MakeFdHestonVanillaEngineC2EN5boost10shared_ptrINS_11HestonModelEEE(ptr noundef nonnull align 8 dereferenceable(120) %this, ptr nocapture noundef %hestonModel) unnamed_addr #8 align 2 personality ptr @__gxx_personality_v0 {
entry:
  %ref.tmp = alloca %"struct.QuantLib::FdmSchemeDesc", align 8
  %0 = load ptr, ptr %hestonModel, align 8, !tbaa !104
  store ptr %0, ptr %this, align 8, !tbaa !104
  %pn.i = getelementptr inbounds nuw i8, ptr %this, i64 8
  %pn3.i = getelementptr inbounds nuw i8, ptr %hestonModel, i64 8
  %1 = load ptr, ptr %pn3.i, align 8, !tbaa !37
  store ptr %1, ptr %pn.i, align 8, !tbaa !37
  tail call void @llvm.memset.p0.i64(ptr noundef nonnull align 8 dereferenceable(16) %hestonModel, i8 0, i64 16, i1 false)
  %dividends_ = getelementptr inbounds nuw i8, ptr %this, i64 16
  tail call void @llvm.memset.p0.i64(ptr noundef nonnull align 8 dereferenceable(24) %dividends_, i8 0, i64 24, i1 false)
  %tGrid_ = getelementptr inbounds nuw i8, ptr %this, i64 40
  store i64 100, ptr %tGrid_, align 8, !tbaa !236
  %xGrid_ = getelementptr inbounds nuw i8, ptr %this, i64 48
  store i64 100, ptr %xGrid_, align 8, !tbaa !239
  %vGrid_ = getelementptr inbounds nuw i8, ptr %this, i64 56
  store i64 50, ptr %vGrid_, align 8, !tbaa !240
  %dampingSteps_ = getelementptr inbounds nuw i8, ptr %this, i64 64
  store i64 0, ptr %dampingSteps_, align 8, !tbaa !241
  call void @llvm.lifetime.start.p0(i64 24, ptr nonnull %ref.tmp) #26
  invoke void @_ZN8QuantLib13FdmSchemeDesc11HundsdorferEv(ptr dead_on_unwind nonnull writable sret(%"struct.QuantLib::FdmSchemeDesc") align 8 %ref.tmp)
          to label %invoke.cont unwind label %lpad

invoke.cont:                                      ; preds = %entry
  %schemeDesc_ = getelementptr inbounds nuw i8, ptr %this, i64 72
  invoke void @_ZN5boost11make_sharedIN8QuantLib13FdmSchemeDescEJS2_EEENS_6detail15sp_if_not_arrayIT_E4typeEDpOT0_(ptr dead_on_unwind nonnull writable sret(%"class.boost::shared_ptr.92") align 8 %schemeDesc_, ptr noundef nonnull align 8 dereferenceable(24) %ref.tmp)
          to label %invoke.cont2 unwind label %lpad

invoke.cont2:                                     ; preds = %invoke.cont
  call void @llvm.lifetime.end.p0(i64 24, ptr nonnull %ref.tmp) #26
  %leverageFct_ = getelementptr inbounds nuw i8, ptr %this, i64 88
  call void @llvm.memset.p0.i64(ptr noundef nonnull align 8 dereferenceable(32) %leverageFct_, i8 0, i64 32, i1 false)
  ret void

lpad:                                             ; preds = %invoke.cont, %entry
  %2 = landingpad { ptr, i32 }
          cleanup
  call void @llvm.lifetime.end.p0(i64 24, ptr nonnull %ref.tmp) #26
  call void @_ZNSt6vectorIN5boost10shared_ptrIN8QuantLib8DividendEEESaIS4_EED2Ev(ptr noundef nonnull align 8 dereferenceable(24) %dividends_) #26
  call void @_ZN5boost10shared_ptrIN8QuantLib11HestonModelEED2Ev(ptr noundef nonnull align 8 dereferenceable(16) %this) #26
  resume { ptr, i32 } %2
}